target datalayout = "e-m:e-p270:32:32-p271:32:32-p272:64:64-i64:64-i128:128-f80:128-n8:16:32:64-S128"
target triple = "x86_64-unknown-linux-gnu"

%"struct.std::__detail::_Hash_node_base" = type { ptr }
%"struct.std::__detail::_Prime_rehash_policy" = type { float, i64 }
%"class.std::unordered_map.322" = type { %"class.std::_Hashtable.323" }
%"class.std::_Hashtable.323" = type { ptr, i64, %"struct.std::__detail::_Hash_node_base", i64, %"struct.std::__detail::_Prime_rehash_policy", ptr }
%"class.std::unordered_map.343" = type { %"class.std::_Hashtable.344" }
%"class.std::_Hashtable.344" = type { ptr, i64, %"struct.std::__detail::_Hash_node_base", i64, %"struct.std::__detail::_Prime_rehash_policy", ptr }
%"class.std::__cxx11::basic_string" = type { %"struct.std::__cxx11::basic_string<char>::_Alloc_hider", i64, %union.anon }
%"struct.std::__cxx11::basic_string<char>::_Alloc_hider" = type { ptr }
%union.anon = type { i64, [8 x i8] }
%"struct.std::__detail::_Node_iterator_base.974" = type { ptr }
%"union.std::aligned_storage<40, 8>::type" = type { [40 x i8] }
%"struct.std::__detail::_Hash_node_value_base.755" = type { %"struct.__gnu_cxx::__aligned_buffer.756" }
%"struct.__gnu_cxx::__aligned_buffer.756" = type { %"union.std::aligned_storage<40, 8>::type" }
%"struct.std::pair.757" = type <{ %"class.std::__cxx11::basic_string", i32, [4 x i8] }>
%"struct.std::__detail::_Node_const_iterator.976" = type { %"struct.std::__detail::_Node_iterator_base.974" }

@__dso_handle = external hidden global i8
@_ZZN8facebook5velox4core10WindowNode18windowTypeFromNameERKNSt7__cxx1112basic_stringIcSt11char_traitsIcESaIcEEEE6kTypesB5cxx11 = internal global %"class.std::unordered_map.343" zeroinitializer, align 8
@_ZGVZN8facebook5velox4core10WindowNode18windowTypeFromNameERKNSt7__cxx1112basic_stringIcSt11char_traitsIcESaIcEEEE6kTypesB5cxx11 = internal global i64 0, align 8
@.str.230 = private unnamed_addr constant [18 x i8] c"unordered_map::at\00", align 1

; Function Attrs: mustprogress nounwind uwtable
define linkonce_odr noundef ptr @_ZN9__gnu_cxx16__aligned_bufferISt4pairIKNSt7__cxx1112basic_stringIcSt11char_traitsIcESaIcEEEN8facebook5velox4core10WindowNode10WindowTypeEEE7_M_addrEv(ptr noundef nonnull align 8 dereferenceable(40) %this) #1 comdat align 2 {
entry:
  %this.addr = alloca ptr, align 8
  store ptr %this, ptr %this.addr, align 8
  %this1 = load ptr, ptr %this.addr, align 8
  %_M_storage = getelementptr inbounds %"struct.__gnu_cxx::__aligned_buffer.756", ptr %this1, i32 0, i32 0
  ret ptr %_M_storage
}

; Function Attrs: mustprogress nounwind uwtable
define linkonce_odr noundef ptr @_ZN9__gnu_cxx16__aligned_bufferISt4pairIKNSt7__cxx1112basic_stringIcSt11char_traitsIcESaIcEEEN8facebook5velox4core10WindowNode10WindowTypeEEE6_M_ptrEv(ptr noundef nonnull align 8 dereferenceable(40) %this) #1 comdat align 2 {
entry:
  %this.addr = alloca ptr, align 8
  store ptr %this, ptr %this.addr, align 8
  %this1 = load ptr, ptr %this.addr, align 8
  %call = call noundef ptr @_ZN9__gnu_cxx16__aligned_bufferISt4pairIKNSt7__cxx1112basic_stringIcSt11char_traitsIcESaIcEEEN8facebook5velox4core10WindowNode10WindowTypeEEE7_M_addrEv(ptr noundef nonnull align 8 dereferenceable(40) %this1) #5
  ret ptr %call
}

; Function Attrs: mustprogress nounwind uwtable
define linkonce_odr noundef ptr @_ZNSt8__detail21_Hash_node_value_baseISt4pairIKNSt7__cxx1112basic_stringIcSt11char_traitsIcESaIcEEEN8facebook5velox4core10WindowNode10WindowTypeEEE9_M_valptrEv(ptr noundef nonnull align 8 dereferenceable(40) %this) #1 comdat align 2 {
entry:
  %this.addr = alloca ptr, align 8
  store ptr %this, ptr %this.addr, align 8
  %this1 = load ptr, ptr %this.addr, align 8
  %_M_storage = getelementptr inbounds %"struct.std::__detail::_Hash_node_value_base.755", ptr %this1, i32 0, i32 0
  %call = call noundef ptr @_ZN9__gnu_cxx16__aligned_bufferISt4pairIKNSt7__cxx1112basic_stringIcSt11char_traitsIcESaIcEEEN8facebook5velox4core10WindowNode10WindowTypeEEE6_M_ptrEv(ptr noundef nonnull align 8 dereferenceable(40) %_M_storage) #5
  ret ptr %call
}

; Function Attrs: mustprogress nounwind uwtable
define linkonce_odr noundef ptr @_ZNKSt8__detail20_Node_const_iteratorISt4pairIKNSt7__cxx1112basic_stringIcSt11char_traitsIcESaIcEEEN8facebook5velox4core10WindowNode10WindowTypeEELb0ELb1EEptEv(ptr noundef nonnull align 8 dereferenceable(8) %this) #1 comdat align 2 {
entry:
  %this.addr = alloca ptr, align 8
  store ptr %this, ptr %this.addr, align 8
  %this1 = load ptr, ptr %this.addr, align 8
  %_M_cur = getelementptr inbounds %"struct.std::__detail::_Node_iterator_base.974", ptr %this1, i32 0, i32 0
  %0 = load ptr, ptr %_M_cur, align 8
  %add.ptr = getelementptr inbounds i8, ptr %0, i64 8
  %call = call noundef ptr @_ZNSt8__detail21_Hash_node_value_baseISt4pairIKNSt7__cxx1112basic_stringIcSt11char_traitsIcESaIcEEEN8facebook5velox4core10WindowNode10WindowTypeEEE9_M_valptrEv(ptr noundef nonnull align 8 dereferenceable(40) %add.ptr) #5
  ret ptr %call
}

; Function Attrs: mustprogress uwtable
define linkonce_odr noundef nonnull align 4 dereferenceable(4) ptr @_ZNKSt8__detail9_Map_baseINSt7__cxx1112basic_stringIcSt11char_traitsIcESaIcEEESt4pairIKS6_N8facebook5velox4core10WindowNode10WindowTypeEESaISE_ENS_10_Select1stESt8equal_toIS6_ESt4hashIS6_ENS_18_Mod_range_hashingENS_20_Default_ranged_hashENS_20_Prime_rehash_policyENS_17_Hashtable_traitsILb1ELb0ELb1EEELb1EE2atERS8_(ptr noundef nonnull align 1 dereferenceable(1) %this, ptr noundef nonnull align 8 dereferenceable(32) %__k) #2 comdat align 2 {
entry:
  %this.addr = alloca ptr, align 8
  %__k.addr = alloca ptr, align 8
  %__ite = alloca %"struct.std::__detail::_Node_const_iterator.976", align 8
  store ptr %this, ptr %this.addr, align 8
  store ptr %__k, ptr %__k.addr, align 8
  %this1 = load ptr, ptr %this.addr, align 8
  %0 = load ptr, ptr %__k.addr, align 8
  %call = call ptr @_ZNKSt10_HashtableINSt7__cxx1112basic_stringIcSt11char_traitsIcESaIcEEESt4pairIKS5_N8facebook5velox4core10WindowNode10WindowTypeEESaISD_ENSt8__detail10_Select1stESt8equal_toIS5_ESt4hashIS5_ENSF_18_Mod_range_hashingENSF_20_Default_ranged_hashENSF_20_Prime_rehash_policyENSF_17_Hashtable_traitsILb1ELb0ELb1EEEE4findERS7_(ptr noundef nonnull align 8 dereferenceable(56) %this1, ptr noundef nonnull align 8 dereferenceable(32) %0)
  %coerce.dive = getelementptr inbounds %"struct.std::__detail::_Node_const_iterator.976", ptr %__ite, i32 0, i32 0
  %coerce.dive2 = getelementptr inbounds %"struct.std::__detail::_Node_iterator_base.974", ptr %coerce.dive, i32 0, i32 0
  store ptr %call, ptr %coerce.dive2, align 8
  %_M_cur = getelementptr inbounds %"struct.std::__detail::_Node_iterator_base.974", ptr %__ite, i32 0, i32 0
  %1 = load ptr, ptr %_M_cur, align 8
  %tobool = icmp ne ptr %1, null
  br i1 %tobool, label %if.end, label %if.then

if.then:                                          ; preds = %entry
  call void @_ZSt20__throw_out_of_rangePKc(ptr noundef @.str.230) #29
  unreachable

if.end:                                           ; preds = %entry
  %call3 = call noundef ptr @_ZNKSt8__detail20_Node_const_iteratorISt4pairIKNSt7__cxx1112basic_stringIcSt11char_traitsIcESaIcEEEN8facebook5velox4core10WindowNode10WindowTypeEELb0ELb1EEptEv(ptr noundef nonnull align 8 dereferenceable(8) %__ite) #5
  %second = getelementptr inbounds %"struct.std::pair.757", ptr %call3, i32 0, i32 1
  ret ptr %second
}

; Function Attrs: mustprogress uwtable
define linkonce_odr noundef nonnull align 4 dereferenceable(4) ptr @_ZNKSt13unordered_mapINSt7__cxx1112basic_stringIcSt11char_traitsIcESaIcEEEN8facebook5velox4core10WindowNode10WindowTypeESt4hashIS5_ESt8equal_toIS5_ESaISt4pairIKS5_SA_EEE2atERSG_(ptr noundef nonnull align 8 dereferenceable(56) %this, ptr noundef nonnull align 8 dereferenceable(32) %__k) #2 comdat align 2 {
entry:
  %this.addr = alloca ptr, align 8
  %__k.addr = alloca ptr, align 8
  store ptr %this, ptr %this.addr, align 8
  store ptr %__k, ptr %__k.addr, align 8
  %this1 = load ptr, ptr %this.addr, align 8
  %_M_h = getelementptr inbounds %"class.std::unordered_map.343", ptr %this1, i32 0, i32 0
  %0 = load ptr, ptr %__k.addr, align 8
  %call = call noundef nonnull align 4 dereferenceable(4) ptr @_ZNKSt8__detail9_Map_baseINSt7__cxx1112basic_stringIcSt11char_traitsIcESaIcEEESt4pairIKS6_N8facebook5velox4core10WindowNode10WindowTypeEESaISE_ENS_10_Select1stESt8equal_toIS6_ESt4hashIS6_ENS_18_Mod_range_hashingENS_20_Default_ranged_hashENS_20_Prime_rehash_policyENS_17_Hashtable_traitsILb1ELb0ELb1EEELb1EE2atERS8_(ptr noundef nonnull align 1 dereferenceable(1) %_M_h, ptr noundef nonnull align 8 dereferenceable(32) %0)
  ret ptr %call
}

; Function Attrs: mustprogress uwtable
define noundef i32 @_ZN8facebook5velox4core10WindowNode18windowTypeFromNameERKNSt7__cxx1112basic_stringIcSt11char_traitsIcESaIcEEE(ptr noundef nonnull align 8 dereferenceable(32) %name) #2 align 2 personality ptr @__gxx_personality_v0 {
entry:
  %name.addr = alloca ptr, align 8
  %ref.tmp = alloca %"class.std::unordered_map.322", align 8
  %exn.slot = alloca ptr, align 8
  %ehselector.slot = alloca i32, align 4
  store ptr %name, ptr %name.addr, align 8
  %0 = load atomic i8, ptr @_ZGVZN8facebook5velox4core10WindowNode18windowTypeFromNameERKNSt7__cxx1112basic_stringIcSt11char_traitsIcESaIcEEEE6kTypesB5cxx11 acquire, align 8
  %guard.uninitialized = icmp eq i8 %0, 0
  br i1 %guard.uninitialized, label %init.check, label %init.end, !prof !7

init.check:                                       ; preds = %entry
  %1 = call i32 @__cxa_guard_acquire(ptr @_ZGVZN8facebook5velox4core10WindowNode18windowTypeFromNameERKNSt7__cxx1112basic_stringIcSt11char_traitsIcESaIcEEEE6kTypesB5cxx11) #5
  %tobool = icmp ne i32 %1, 0
  br i1 %tobool, label %init, label %init.end

init:                                             ; preds = %init.check
  invoke void @_ZN8facebook5velox4core12_GLOBAL__N_115windowTypeNamesB5cxx11Ev(ptr sret(%"class.std::unordered_map.322") align 8 %ref.tmp)
          to label %invoke.cont unwind label %lpad

invoke.cont:                                      ; preds = %init
  invoke void @_ZN8facebook5velox4core12_GLOBAL__N_19invertMapINS1_10WindowNode10WindowTypeENSt7__cxx1112basic_stringIcSt11char_traitsIcESaIcEEEEESt13unordered_mapIT0_T_St4hashISD_ESt8equal_toISD_ESaISt4pairIKSD_SE_EEERKSC_ISE_SD_SF_ISE_ESH_ISE_ESaISJ_IKSE_SD_EEE(ptr sret(%"class.std::unordered_map.343") align 8 @_ZZN8facebook5velox4core10WindowNode18windowTypeFromNameERKNSt7__cxx1112basic_stringIcSt11char_traitsIcESaIcEEEE6kTypesB5cxx11, ptr noundef nonnull align 8 dereferenceable(56) %ref.tmp)
          to label %invoke.cont2 unwind label %lpad1

invoke.cont2:                                     ; preds = %invoke.cont
  call void @_ZNSt13unordered_mapIN8facebook5velox4core10WindowNode10WindowTypeENSt7__cxx1112basic_stringIcSt11char_traitsIcESaIcEEESt4hashIS4_ESt8equal_toIS4_ESaISt4pairIKS4_SA_EEED2Ev(ptr noundef nonnull align 8 dereferenceable(56) %ref.tmp) #5
  %2 = call i32 @__cxa_atexit(ptr @_ZNSt13unordered_mapINSt7__cxx1112basic_stringIcSt11char_traitsIcESaIcEEEN8facebook5velox4core10WindowNode10WindowTypeESt4hashIS5_ESt8equal_toIS5_ESaISt4pairIKS5_SA_EEED2Ev, ptr @_ZZN8facebook5velox4core10WindowNode18windowTypeFromNameERKNSt7__cxx1112basic_stringIcSt11char_traitsIcESaIcEEEE6kTypesB5cxx11, ptr @__dso_handle) #5
  call void @__cxa_guard_release(ptr @_ZGVZN8facebook5velox4core10WindowNode18windowTypeFromNameERKNSt7__cxx1112basic_stringIcSt11char_traitsIcESaIcEEEE6kTypesB5cxx11) #5
  br label %init.end

init.end:                                         ; preds = %invoke.cont2, %init.check, %entry
  %3 = load ptr, ptr %name.addr, align 8
  %call = call noundef nonnull align 4 dereferenceable(4) ptr @_ZNKSt13unordered_mapINSt7__cxx1112basic_stringIcSt11char_traitsIcESaIcEEEN8facebook5velox4core10WindowNode10WindowTypeESt4hashIS5_ESt8equal_toIS5_ESaISt4pairIKS5_SA_EEE2atERSG_(ptr noundef nonnull align 8 dereferenceable(56) @_ZZN8facebook5velox4core10WindowNode18windowTypeFromNameERKNSt7__cxx1112basic_stringIcSt11char_traitsIcESaIcEEEE6kTypesB5cxx11, ptr noundef nonnull align 8 dereferenceable(32) %3)
  %4 = load i32, ptr %call, align 4
  ret i32 %4

lpad:                                             ; preds = %init
  %5 = landingpad { ptr, i32 }
          cleanup
  %6 = extractvalue { ptr, i32 } %5, 0
  store ptr %6, ptr %exn.slot, align 8
  %7 = extractvalue { ptr, i32 } %5, 1
  store i32 %7, ptr %ehselector.slot, align 4
  br label %ehcleanup

lpad1:                                            ; preds = %invoke.cont
  %8 = landingpad { ptr, i32 }
          cleanup
  %9 = extractvalue { ptr, i32 } %8, 0
  store ptr %9, ptr %exn.slot, align 8
  %10 = extractvalue { ptr, i32 } %8, 1
  store i32 %10, ptr %ehselector.slot, align 4
  call void @_ZNSt13unordered_mapIN8facebook5velox4core10WindowNode10WindowTypeENSt7__cxx1112basic_stringIcSt11char_traitsIcESaIcEEESt4hashIS4_ESt8equal_toIS4_ESaISt4pairIKS4_SA_EEED2Ev(ptr noundef nonnull align 8 dereferenceable(56) %ref.tmp) #5
  br label %ehcleanup

ehcleanup:                                        ; preds = %lpad1, %lpad
  call void @__cxa_guard_abort(ptr @_ZGVZN8facebook5velox4core10WindowNode18windowTypeFromNameERKNSt7__cxx1112basic_stringIcSt11char_traitsIcESaIcEEEE6kTypesB5cxx11) #5
  br label %eh.resume

eh.resume:                                        ; preds = %ehcleanup
  %exn = load ptr, ptr %exn.slot, align 8
  %sel = load i32, ptr %ehselector.slot, align 4
  %lpad.val = insertvalue { ptr, i32 } poison, ptr %exn, 0
  %lpad.val3 = insertvalue { ptr, i32 } %lpad.val, i32 %sel, 1
  resume { ptr, i32 } %lpad.val3
}